; Function Attrs: nounwind uwtable
define ptr @H5P_peek_driver_config_str(ptr noundef %0) local_unnamed_addr #0 {
  %2 = alloca %struct.H5FD_driver_prop_t, align 8
  %3 = load i8, ptr @H5P_init_g, align 1, !tbaa !16, !range !18, !noundef !19
  %4 = trunc nuw i8 %3 to i1
  %5 = load i8, ptr @H5_libterm_g, align 1, !range !18
  %6 = trunc nuw i8 %5 to i1
  %7 = select i1 %4, i1 true, i1 %6
  br i1 %7, label %15, label %8, !prof !20

8:                                                ; preds = %1
  store i8 1, ptr @H5P_init_g, align 1, !tbaa !16
  %9 = tail call i32 @H5P__init_package() #15
  %10 = icmp slt i32 %9, 0
  br i1 %10, label %11, label %._crit_edge

._crit_edge:                                      ; preds = %8
  %.pre = load i8, ptr @H5P_init_g, align 1, !tbaa !16, !range !18
  %.pre9 = load i8, ptr @H5_libterm_g, align 1, !range !18
  %.pre10 = trunc nuw i8 %.pre to i1
  %.pre11 = trunc nuw i8 %.pre9 to i1
  br label %15

11:                                               ; preds = %8
  store i8 0, ptr @H5P_init_g, align 1, !tbaa !16
  %12 = load i64, ptr @H5E_FUNC_g, align 8, !tbaa !3
  %13 = load i64, ptr @H5E_CANTINIT_g, align 8, !tbaa !3
  %14 = tail call i32 (ptr, ptr, i32, i64, i64, ptr, ...) @H5E_printf_stack(ptr noundef nonnull @.str.2, ptr noundef nonnull @__func__.H5P_peek_driver_config_str, i32 noundef 1568, i64 noundef %12, i64 noundef %13, ptr noundef nonnull @.str.16) #15
  br label %39

15:                                               ; preds = %._crit_edge, %1
  %.pre-phi12 = phi i1 [ %.pre11, %._crit_edge ], [ %6, %1 ]
  %.pre-phi = phi i1 [ %.pre10, %._crit_edge ], [ %4, %1 ]
  %16 = xor i1 %.pre-phi12, true
  %17 = select i1 %.pre-phi, i1 true, i1 %16
  br i1 %17, label %18, label %39, !prof !20

18:                                               ; preds = %15
  %19 = getelementptr inbounds nuw i8, ptr %0, i64 8
  %20 = load i64, ptr %19, align 8, !tbaa !24
  %21 = load i64, ptr @H5P_CLS_FILE_ACCESS_ID_g, align 8, !tbaa !3
  %22 = tail call i32 @H5P_isa_class(i64 noundef %20, i64 noundef %21) #15
  %23 = icmp eq i32 %22, 1
  br i1 %23, label %24, label %35

24:                                               ; preds = %18
  call void @llvm.lifetime.start.p0(i64 24, ptr nonnull %2) #15
  %25 = call i32 @H5P_peek(ptr noundef nonnull %0, ptr noundef nonnull @.str.10, ptr noundef nonnull %2) #15
  %26 = icmp slt i32 %25, 0
  br i1 %26, label %27, label %31

27:                                               ; preds = %24
  %28 = load i64, ptr @H5E_PLIST_g, align 8, !tbaa !3
  %29 = load i64, ptr @H5E_CANTGET_g, align 8, !tbaa !3
  %30 = call i32 (ptr, ptr, i32, i64, i64, ptr, ...) @H5E_printf_stack(ptr noundef nonnull @.str.2, ptr noundef nonnull @__func__.H5P_peek_driver_config_str, i32 noundef 1575, i64 noundef %28, i64 noundef %29, ptr noundef nonnull @.str.39) #15
  br label %34

31:                                               ; preds = %24
  %32 = getelementptr inbounds nuw i8, ptr %2, i64 16
  %33 = load ptr, ptr %32, align 8, !tbaa !23
  br label %34

34:                                               ; preds = %31, %27
  %.1 = phi ptr [ null, %27 ], [ %33, %31 ]
  call void @llvm.lifetime.end.p0(i64 24, ptr nonnull %2) #15
  br label %39

35:                                               ; preds = %18
  %36 = load i64, ptr @H5E_PLIST_g, align 8, !tbaa !3
  %37 = load i64, ptr @H5E_BADTYPE_g, align 8, !tbaa !3
  %38 = tail call i32 (ptr, ptr, i32, i64, i64, ptr, ...) @H5E_printf_stack(ptr noundef nonnull @.str.2, ptr noundef nonnull @__func__.H5P_peek_driver_config_str, i32 noundef 1579, i64 noundef %36, i64 noundef %37, ptr noundef nonnull @.str.28) #15
  br label %39

39:                                               ; preds = %34, %15, %35, %11
  %.08 = phi ptr [ null, %11 ], [ %.1, %34 ], [ null, %35 ], [ null, %15 ]
  ret ptr %.08
}